; Function Attrs: mustprogress nofree norecurse nosync nounwind willreturn memory(read, argmem: readwrite, inaccessiblemem: none) uwtable
define hidden noundef zeroext i1 @_ZNK16bound_propagator17get_interval_sizeEjRd(ptr nocapture noundef nonnull readonly align 8 dereferenceable(280) %this, i32 noundef %x, ptr nocapture noundef nonnull writeonly align 8 dereferenceable(8) %r) local_unnamed_addr #11 align 2 {
entry:
  %m_lowers = getelementptr inbounds i8, ptr %this, i64 104
  %0 = load ptr, ptr %m_lowers, align 8
  %idxprom.i = zext i32 %x to i64
  %arrayidx.i = getelementptr inbounds ptr, ptr %0, i64 %idxprom.i
  %1 = load ptr, ptr %arrayidx.i, align 8
  %m_uppers = getelementptr inbounds i8, ptr %this, i64 112
  %2 = load ptr, ptr %m_uppers, align 8
  %arrayidx.i6 = getelementptr inbounds ptr, ptr %2, i64 %idxprom.i
  %3 = load ptr, ptr %arrayidx.i6, align 8
  %tobool = icmp ne ptr %1, null
  %tobool3 = icmp ne ptr %3, null
  %or.cond = select i1 %tobool, i1 %tobool3, i1 false
  br i1 %or.cond, label %if.then, label %return

if.then:                                          ; preds = %entry
  %m_approx_k = getelementptr inbounds i8, ptr %3, i64 32
  %4 = load double, ptr %m_approx_k, align 8
  %m_approx_k4 = getelementptr inbounds i8, ptr %1, i64 32
  %5 = load double, ptr %m_approx_k4, align 8
  %sub = fsub double %4, %5
  store double %sub, ptr %r, align 8
  br label %return

return:                                           ; preds = %entry, %if.then
  ret i1 %or.cond
}